target datalayout = "e-m:e-p270:32:32-p271:32:32-p272:64:64-i64:64-i128:128-f80:128-n8:16:32:64-S128"
target triple = "x86_64-pc-linux-gnu"

%struct.hm_fragment_st = type { %struct.hm_header_st, ptr, ptr }
%struct.hm_header_st = type { i8, i32, i16, i32, i32, i32, i16 }

; Function Attrs: inlinehint nounwind uwtable
define internal zeroext i8 @bit_range(i64 noundef %0, i64 noundef %1) #7 {
  %3 = alloca i64, align 8
  %4 = alloca i64, align 8
  store i64 %0, ptr %3, align 8, !tbaa !53
  store i64 %1, ptr %4, align 8, !tbaa !53
  %5 = load i64, ptr %3, align 8, !tbaa !53
  %6 = trunc i64 %5 to i32
  %7 = shl i32 1, %6
  %8 = sub i32 %7, 1
  %9 = xor i32 %8, -1
  %10 = load i64, ptr %4, align 8, !tbaa !53
  %11 = trunc i64 %10 to i32
  %12 = shl i32 1, %11
  %13 = sub i32 %12, 1
  %14 = and i32 %9, %13
  %15 = trunc i32 %14 to i8
  ret i8 %15
}

; Function Attrs: nounwind uwtable
define internal void @dtls1_hm_fragment_mark(ptr noundef %0, i64 noundef %1, i64 noundef %2) #0 {
  %4 = alloca ptr, align 8
  %5 = alloca i64, align 8
  %6 = alloca i64, align 8
  %7 = alloca i64, align 8
  %8 = alloca i64, align 8
  %9 = alloca i32, align 4
  store ptr %0, ptr %4, align 8, !tbaa !6
  store i64 %1, ptr %5, align 8, !tbaa !53
  store i64 %2, ptr %6, align 8, !tbaa !53
  call void @llvm.lifetime.start.p0(i64 8, ptr %7) #8
  call void @llvm.lifetime.start.p0(i64 8, ptr %8) #8
  %10 = load ptr, ptr %4, align 8, !tbaa !6
  %11 = getelementptr inbounds nuw %struct.hm_fragment_st, ptr %10, i32 0, i32 0
  %12 = getelementptr inbounds nuw %struct.hm_header_st, ptr %11, i32 0, i32 1
  %13 = load i32, ptr %12, align 4, !tbaa !91
  %14 = zext i32 %13 to i64
  store i64 %14, ptr %8, align 8, !tbaa !53
  %15 = load ptr, ptr %4, align 8, !tbaa !6
  %16 = getelementptr inbounds nuw %struct.hm_fragment_st, ptr %15, i32 0, i32 2
  %17 = load ptr, ptr %16, align 8, !tbaa !17
  %18 = icmp eq ptr %17, null
  br i1 %18, label %27, label %19

19:                                               ; preds = %3
  %20 = load i64, ptr %5, align 8, !tbaa !53
  %21 = load i64, ptr %6, align 8, !tbaa !53
  %22 = icmp ugt i64 %20, %21
  br i1 %22, label %27, label %23

23:                                               ; preds = %19
  %24 = load i64, ptr %6, align 8, !tbaa !53
  %25 = load i64, ptr %8, align 8, !tbaa !53
  %26 = icmp ugt i64 %24, %25
  br i1 %26, label %27, label %28

27:                                               ; preds = %23, %19, %3
  store i32 1, ptr %9, align 4
  br label %148

28:                                               ; preds = %23
  %29 = load i64, ptr %5, align 8, !tbaa !53
  %30 = lshr i64 %29, 3
  %31 = load i64, ptr %6, align 8, !tbaa !53
  %32 = lshr i64 %31, 3
  %33 = icmp eq i64 %30, %32
  br i1 %33, label %34, label %51

34:                                               ; preds = %28
  %35 = load i64, ptr %5, align 8, !tbaa !53
  %36 = and i64 %35, 7
  %37 = load i64, ptr %6, align 8, !tbaa !53
  %38 = and i64 %37, 7
  %39 = call zeroext i8 @bit_range(i64 noundef %36, i64 noundef %38)
  %40 = zext i8 %39 to i32
  %41 = load ptr, ptr %4, align 8, !tbaa !6
  %42 = getelementptr inbounds nuw %struct.hm_fragment_st, ptr %41, i32 0, i32 2
  %43 = load ptr, ptr %42, align 8, !tbaa !17
  %44 = load i64, ptr %5, align 8, !tbaa !53
  %45 = lshr i64 %44, 3
  %46 = getelementptr inbounds nuw i8, ptr %43, i64 %45
  %47 = load i8, ptr %46, align 1, !tbaa !111
  %48 = zext i8 %47 to i32
  %49 = or i32 %48, %40
  %50 = trunc i32 %49 to i8
  store i8 %50, ptr %46, align 1, !tbaa !111
  br label %103

51:                                               ; preds = %28
  %52 = load i64, ptr %5, align 8, !tbaa !53
  %53 = and i64 %52, 7
  %54 = call zeroext i8 @bit_range(i64 noundef %53, i64 noundef 8)
  %55 = zext i8 %54 to i32
  %56 = load ptr, ptr %4, align 8, !tbaa !6
  %57 = getelementptr inbounds nuw %struct.hm_fragment_st, ptr %56, i32 0, i32 2
  %58 = load ptr, ptr %57, align 8, !tbaa !17
  %59 = load i64, ptr %5, align 8, !tbaa !53
  %60 = lshr i64 %59, 3
  %61 = getelementptr inbounds nuw i8, ptr %58, i64 %60
  %62 = load i8, ptr %61, align 1, !tbaa !111
  %63 = zext i8 %62 to i32
  %64 = or i32 %63, %55
  %65 = trunc i32 %64 to i8
  store i8 %65, ptr %61, align 1, !tbaa !111
  %66 = load i64, ptr %5, align 8, !tbaa !53
  %67 = lshr i64 %66, 3
  %68 = add i64 %67, 1
  store i64 %68, ptr %7, align 8, !tbaa !53
  br label %69

69:                                               ; preds = %80, %51
  %70 = load i64, ptr %7, align 8, !tbaa !53
  %71 = load i64, ptr %6, align 8, !tbaa !53
  %72 = lshr i64 %71, 3
  %73 = icmp ult i64 %70, %72
  br i1 %73, label %74, label %83

74:                                               ; preds = %69
  %75 = load ptr, ptr %4, align 8, !tbaa !6
  %76 = getelementptr inbounds nuw %struct.hm_fragment_st, ptr %75, i32 0, i32 2
  %77 = load ptr, ptr %76, align 8, !tbaa !17
  %78 = load i64, ptr %7, align 8, !tbaa !53
  %79 = getelementptr inbounds nuw i8, ptr %77, i64 %78
  store i8 -1, ptr %79, align 1, !tbaa !111
  br label %80

80:                                               ; preds = %74
  %81 = load i64, ptr %7, align 8, !tbaa !53
  %82 = add i64 %81, 1
  store i64 %82, ptr %7, align 8, !tbaa !53
  br label %69, !llvm.loop !120

83:                                               ; preds = %69
  %84 = load i64, ptr %6, align 8, !tbaa !53
  %85 = and i64 %84, 7
  %86 = icmp ne i64 %85, 0
  br i1 %86, label %87, label %102

87:                                               ; preds = %83
  %88 = load i64, ptr %6, align 8, !tbaa !53
  %89 = and i64 %88, 7
  %90 = call zeroext i8 @bit_range(i64 noundef 0, i64 noundef %89)
  %91 = zext i8 %90 to i32
  %92 = load ptr, ptr %4, align 8, !tbaa !6
  %93 = getelementptr inbounds nuw %struct.hm_fragment_st, ptr %92, i32 0, i32 2
  %94 = load ptr, ptr %93, align 8, !tbaa !17
  %95 = load i64, ptr %6, align 8, !tbaa !53
  %96 = lshr i64 %95, 3
  %97 = getelementptr inbounds nuw i8, ptr %94, i64 %96
  %98 = load i8, ptr %97, align 1, !tbaa !111
  %99 = zext i8 %98 to i32
  %100 = or i32 %99, %91
  %101 = trunc i32 %100 to i8
  store i8 %101, ptr %97, align 1, !tbaa !111
  br label %102

102:                                              ; preds = %87, %83
  br label %103

103:                                              ; preds = %102, %34
  store i64 0, ptr %7, align 8, !tbaa !53
  br label %104

104:                                              ; preds = %120, %103
  %105 = load i64, ptr %7, align 8, !tbaa !53
  %106 = load i64, ptr %8, align 8, !tbaa !53
  %107 = lshr i64 %106, 3
  %108 = icmp ult i64 %105, %107
  br i1 %108, label %109, label %123

109:                                              ; preds = %104
  %110 = load ptr, ptr %4, align 8, !tbaa !6
  %111 = getelementptr inbounds nuw %struct.hm_fragment_st, ptr %110, i32 0, i32 2
  %112 = load ptr, ptr %111, align 8, !tbaa !17
  %113 = load i64, ptr %7, align 8, !tbaa !53
  %114 = getelementptr inbounds nuw i8, ptr %112, i64 %113
  %115 = load i8, ptr %114, align 1, !tbaa !111
  %116 = zext i8 %115 to i32
  %117 = icmp ne i32 %116, 255
  br i1 %117, label %118, label %119

118:                                              ; preds = %109
  store i32 1, ptr %9, align 4
  br label %148

119:                                              ; preds = %109
  br label %120

120:                                              ; preds = %119
  %121 = load i64, ptr %7, align 8, !tbaa !53
  %122 = add i64 %121, 1
  store i64 %122, ptr %7, align 8, !tbaa !53
  br label %104, !llvm.loop !121

123:                                              ; preds = %104
  %124 = load i64, ptr %8, align 8, !tbaa !53
  %125 = and i64 %124, 7
  %126 = icmp ne i64 %125, 0
  br i1 %126, label %127, label %142

127:                                              ; preds = %123
  %128 = load ptr, ptr %4, align 8, !tbaa !6
  %129 = getelementptr inbounds nuw %struct.hm_fragment_st, ptr %128, i32 0, i32 2
  %130 = load ptr, ptr %129, align 8, !tbaa !17
  %131 = load i64, ptr %8, align 8, !tbaa !53
  %132 = lshr i64 %131, 3
  %133 = getelementptr inbounds nuw i8, ptr %130, i64 %132
  %134 = load i8, ptr %133, align 1, !tbaa !111
  %135 = zext i8 %134 to i32
  %136 = load i64, ptr %8, align 8, !tbaa !53
  %137 = and i64 %136, 7
  %138 = call zeroext i8 @bit_range(i64 noundef 0, i64 noundef %137)
  %139 = zext i8 %138 to i32
  %140 = icmp ne i32 %135, %139
  br i1 %140, label %141, label %142

141:                                              ; preds = %127
  store i32 1, ptr %9, align 4
  br label %148

142:                                              ; preds = %127, %123
  %143 = load ptr, ptr %4, align 8, !tbaa !6
  %144 = getelementptr inbounds nuw %struct.hm_fragment_st, ptr %143, i32 0, i32 2
  %145 = load ptr, ptr %144, align 8, !tbaa !17
  call void @free(ptr noundef %145) #8
  %146 = load ptr, ptr %4, align 8, !tbaa !6
  %147 = getelementptr inbounds nuw %struct.hm_fragment_st, ptr %146, i32 0, i32 2
  store ptr null, ptr %147, align 8, !tbaa !17
  store i32 0, ptr %9, align 4
  br label %148

148:                                              ; preds = %142, %141, %118, %27
  call void @llvm.lifetime.end.p0(i64 8, ptr %8) #8
  call void @llvm.lifetime.end.p0(i64 8, ptr %7) #8
  %149 = load i32, ptr %9, align 4
  switch i32 %149, label %151 [
    i32 0, label %150
    i32 1, label %150
  ]

150:                                              ; preds = %148, %148
  ret void

151:                                              ; preds = %148
  unreachable
}