; Function Attrs: nounwind uwtable
define internal fastcc void @dtls1_hm_fragment_mark(ptr noundef nonnull captures(none) %0, i64 noundef range(i64 0, 4294967296) %1, i64 noundef range(i64 0, 4294967296) %2) unnamed_addr #2 {
  %4 = getelementptr inbounds nuw i8, ptr %0, i64 4
  %5 = load i32, ptr %4, align 4, !tbaa !89
  %6 = zext i32 %5 to i64
  %7 = getelementptr inbounds nuw i8, ptr %0, i64 40
  %8 = load ptr, ptr %7, align 8, !tbaa !15
  %9 = icmp eq ptr %8, null
  %10 = icmp samesign ugt i64 %1, %2
  %or.cond = select i1 %9, i1 true, i1 %10
  %11 = icmp samesign ugt i64 %2, %6
  %or.cond47 = select i1 %or.cond, i1 true, i1 %11
  br i1 %or.cond47, label %.loopexit, label %12

12:                                               ; preds = %3
  %13 = lshr i64 %1, 3
  %14 = lshr i64 %2, 3
  %15 = icmp eq i64 %13, %14
  %16 = trunc i64 %1 to i8
  %17 = and i8 %16, 7
  %notmask.i = shl nsw i8 -1, %17
  br i1 %15, label %18, label %26

18:                                               ; preds = %12
  %19 = trunc i64 %2 to i8
  %20 = and i8 %19, 7
  %notmask2.i = shl nsw i8 -1, %20
  %21 = xor i8 %notmask2.i, -1
  %22 = and i8 %notmask.i, %21
  %23 = getelementptr inbounds nuw i8, ptr %8, i64 %13
  %24 = load i8, ptr %23, align 1, !tbaa !84
  %25 = or i8 %24, %22
  store i8 %25, ptr %23, align 1, !tbaa !84
  br label %41

26:                                               ; preds = %12
  %27 = getelementptr inbounds nuw i8, ptr %8, i64 %13
  %28 = load i8, ptr %27, align 1, !tbaa !84
  %29 = or i8 %28, %notmask.i
  store i8 %29, ptr %27, align 1, !tbaa !84
  %.052 = add nuw nsw i64 %13, 1
  %30 = icmp samesign ult i64 %.052, %14
  br i1 %30, label %.lr.ph, label %._crit_edge

.lr.ph:                                           ; preds = %26, %.lr.ph
  %.053 = phi i64 [ %.0, %.lr.ph ], [ %.052, %26 ]
  %31 = load ptr, ptr %7, align 8, !tbaa !15
  %32 = getelementptr inbounds nuw i8, ptr %31, i64 %.053
  store i8 -1, ptr %32, align 1, !tbaa !84
  %.0 = add nuw nsw i64 %.053, 1
  %exitcond.not = icmp eq i64 %.0, %14
  br i1 %exitcond.not, label %._crit_edge, label %.lr.ph, !llvm.loop !109

._crit_edge:                                      ; preds = %.lr.ph, %26
  %33 = and i64 %2, 7
  %.not = icmp eq i64 %33, 0
  br i1 %.not, label %41, label %34

34:                                               ; preds = %._crit_edge
  %35 = trunc nuw nsw i64 %33 to i8
  %notmask2.i49 = shl nsw i8 -1, %35
  %36 = xor i8 %notmask2.i49, -1
  %37 = load ptr, ptr %7, align 8, !tbaa !15
  %38 = getelementptr inbounds nuw i8, ptr %37, i64 %14
  %39 = load i8, ptr %38, align 1, !tbaa !84
  %40 = or i8 %39, %36
  store i8 %40, ptr %38, align 1, !tbaa !84
  br label %41

41:                                               ; preds = %._crit_edge, %34, %18
  %42 = lshr i64 %6, 3
  %.not58 = icmp ult i32 %5, 8
  %.pre.pre = load ptr, ptr %7, align 8, !tbaa !15
  br i1 %.not58, label %._crit_edge57, label %.lr.ph56

43:                                               ; preds = %.lr.ph56
  %44 = add nuw nsw i64 %.154, 1
  %exitcond59.not = icmp eq i64 %44, %42
  br i1 %exitcond59.not, label %._crit_edge57, label %.lr.ph56, !llvm.loop !110

.lr.ph56:                                         ; preds = %41, %43
  %.154 = phi i64 [ %44, %43 ], [ 0, %41 ]
  %45 = getelementptr inbounds nuw i8, ptr %.pre.pre, i64 %.154
  %46 = load i8, ptr %45, align 1, !tbaa !84
  %.not46 = icmp eq i8 %46, -1
  br i1 %.not46, label %43, label %.loopexit

._crit_edge57:                                    ; preds = %43, %41
  %47 = and i64 %6, 7
  %.not44 = icmp eq i64 %47, 0
  br i1 %.not44, label %53, label %48

48:                                               ; preds = %._crit_edge57
  %49 = getelementptr inbounds nuw i8, ptr %.pre.pre, i64 %42
  %50 = load i8, ptr %49, align 1, !tbaa !84
  %51 = trunc nuw nsw i64 %47 to i8
  %notmask2.i50 = shl nsw i8 -1, %51
  %52 = xor i8 %50, %notmask2.i50
  %.not45 = icmp eq i8 %52, -1
  br i1 %.not45, label %53, label %.loopexit

53:                                               ; preds = %48, %._crit_edge57
  tail call void @free(ptr noundef %.pre.pre) #13
  store ptr null, ptr %7, align 8, !tbaa !15
  br label %.loopexit

.loopexit:                                        ; preds = %.lr.ph56, %48, %3, %53
  ret void
}